; ModuleID = '5/915.c'
source_filename = "5/915.c"
target datalayout = "e-m:e-p270:32:32-p271:32:32-p272:64:64-i64:64-f80:128-n8:16:32:64-S128"
target triple = "x86_64-pc-linux-gnu"

@.str = private unnamed_addr constant [4 x i8] c"%lf\00", align 1
@.str.1 = private unnamed_addr constant [3 x i8] c"%s\00", align 1
@.str.2 = private unnamed_addr constant [6 x i8] c"error\00", align 1
@.str.3 = private unnamed_addr constant [4 x i8] c"yes\00", align 1
@.str.4 = private unnamed_addr constant [3 x i8] c"no\00", align 1

; Function Attrs: noinline nounwind uwtable
define dso_local i32 @main() #0 {
  %1 = alloca i32, align 4
  %2 = alloca double, align 8
  %3 = alloca i32, align 4
  %4 = alloca i32, align 4
  %5 = alloca i32, align 4
  %6 = alloca i32, align 4
  %7 = alloca i32, align 4
  %8 = alloca [1000 x i32], align 16
  %9 = alloca [500 x i8], align 16
  %10 = alloca [500 x i8], align 16
  store i32 0, i32* %1, align 4
  store i32 0, i32* %6, align 4
  store i32 0, i32* %7, align 4
  %11 = call i32 (i8*, ...) @__isoc99_scanf(i8* getelementptr inbounds ([4 x i8], [4 x i8]* @.str, i64 0, i64 0), double* %2)
  %12 = getelementptr inbounds [500 x i8], [500 x i8]* %9, i64 0, i64 0
  %13 = call i32 (i8*, ...) @__isoc99_scanf(i8* getelementptr inbounds ([3 x i8], [3 x i8]* @.str.1, i64 0, i64 0), i8* %12)
  %14 = getelementptr inbounds [500 x i8], [500 x i8]* %10, i64 0, i64 0
  %15 = call i32 (i8*, ...) @__isoc99_scanf(i8* getelementptr inbounds ([3 x i8], [3 x i8]* @.str.1, i64 0, i64 0), i8* %14)
  %16 = getelementptr inbounds [500 x i8], [500 x i8]* %9, i64 0, i64 0
  %17 = call i64 @strlen(i8* %16) #3
  %18 = trunc i64 %17 to i32
  store i32 %18, i32* %3, align 4
  %19 = getelementptr inbounds [500 x i8], [500 x i8]* %10, i64 0, i64 0
  %20 = call i64 @strlen(i8* %19) #3
  %21 = trunc i64 %20 to i32
  store i32 %21, i32* %4, align 4
  %22 = load i32, i32* %3, align 4
  %23 = load i32, i32* %4, align 4
  %24 = icmp ne i32 %22, %23
  br i1 %24, label %25, label %27

25:                                               ; preds = %0
  %26 = call i32 (i8*, ...) @printf(i8* getelementptr inbounds ([6 x i8], [6 x i8]* @.str.2, i64 0, i64 0))
  store i32 0, i32* %1, align 4
  br label %162

27:                                               ; preds = %0
  store i32 0, i32* %5, align 4
  br label %28

28:                                               ; preds = %64, %27
  %29 = load i32, i32* %5, align 4
  %30 = load i32, i32* %3, align 4
  %31 = sub nsw i32 %30, 1
  %32 = icmp slt i32 %29, %31
  br i1 %32, label %33, label %67

33:                                               ; preds = %28
  %34 = load i32, i32* %5, align 4
  %35 = sext i32 %34 to i64
  %36 = getelementptr inbounds [500 x i8], [500 x i8]* %9, i64 0, i64 %35
  %37 = load i8, i8* %36, align 1
  %38 = sext i8 %37 to i32
  %39 = icmp ne i32 %38, 65
  br i1 %39, label %40, label %63

40:                                               ; preds = %33
  %41 = load i32, i32* %5, align 4
  %42 = sext i32 %41 to i64
  %43 = getelementptr inbounds [500 x i8], [500 x i8]* %9, i64 0, i64 %42
  %44 = load i8, i8* %43, align 1
  %45 = sext i8 %44 to i32
  %46 = icmp ne i32 %45, 84
  br i1 %46, label %47, label %63

47:                                               ; preds = %40
  %48 = load i32, i32* %5, align 4
  %49 = sext i32 %48 to i64
  %50 = getelementptr inbounds [500 x i8], [500 x i8]* %9, i64 0, i64 %49
  %51 = load i8, i8* %50, align 1
  %52 = sext i8 %51 to i32
  %53 = icmp ne i32 %52, 71
  br i1 %53, label %54, label %63

54:                                               ; preds = %47
  %55 = load i32, i32* %5, align 4
  %56 = sext i32 %55 to i64
  %57 = getelementptr inbounds [500 x i8], [500 x i8]* %9, i64 0, i64 %56
  %58 = load i8, i8* %57, align 1
  %59 = sext i8 %58 to i32
  %60 = icmp ne i32 %59, 67
  br i1 %60, label %61, label %63

61:                                               ; preds = %54
  %62 = call i32 (i8*, ...) @printf(i8* getelementptr inbounds ([6 x i8], [6 x i8]* @.str.2, i64 0, i64 0))
  store i32 1, i32* %7, align 4
  br label %67

63:                                               ; preds = %54, %47, %40, %33
  br label %64

64:                                               ; preds = %63
  %65 = load i32, i32* %5, align 4
  %66 = add nsw i32 %65, 1
  store i32 %66, i32* %5, align 4
  br label %28

67:                                               ; preds = %61, %28
  store i32 0, i32* %5, align 4
  br label %68

68:                                               ; preds = %104, %67
  %69 = load i32, i32* %5, align 4
  %70 = load i32, i32* %4, align 4
  %71 = sub nsw i32 %70, 1
  %72 = icmp slt i32 %69, %71
  br i1 %72, label %73, label %107

73:                                               ; preds = %68
  %74 = load i32, i32* %5, align 4
  %75 = sext i32 %74 to i64
  %76 = getelementptr inbounds [500 x i8], [500 x i8]* %10, i64 0, i64 %75
  %77 = load i8, i8* %76, align 1
  %78 = sext i8 %77 to i32
  %79 = icmp ne i32 %78, 65
  br i1 %79, label %80, label %103

80:                                               ; preds = %73
  %81 = load i32, i32* %5, align 4
  %82 = sext i32 %81 to i64
  %83 = getelementptr inbounds [500 x i8], [500 x i8]* %10, i64 0, i64 %82
  %84 = load i8, i8* %83, align 1
  %85 = sext i8 %84 to i32
  %86 = icmp ne i32 %85, 84
  br i1 %86, label %87, label %103

87:                                               ; preds = %80
  %88 = load i32, i32* %5, align 4
  %89 = sext i32 %88 to i64
  %90 = getelementptr inbounds [500 x i8], [500 x i8]* %10, i64 0, i64 %89
  %91 = load i8, i8* %90, align 1
  %92 = sext i8 %91 to i32
  %93 = icmp ne i32 %92, 71
  br i1 %93, label %94, label %103

94:                                               ; preds = %87
  %95 = load i32, i32* %5, align 4
  %96 = sext i32 %95 to i64
  %97 = getelementptr inbounds [500 x i8], [500 x i8]* %10, i64 0, i64 %96
  %98 = load i8, i8* %97, align 1
  %99 = sext i8 %98 to i32
  %100 = icmp ne i32 %99, 67
  br i1 %100, label %101, label %103

101:                                              ; preds = %94
  %102 = call i32 (i8*, ...) @printf(i8* getelementptr inbounds ([6 x i8], [6 x i8]* @.str.2, i64 0, i64 0))
  store i32 1, i32* %7, align 4
  br label %107

103:                                              ; preds = %94, %87, %80, %73
  br label %104

104:                                              ; preds = %103
  %105 = load i32, i32* %5, align 4
  %106 = add nsw i32 %105, 1
  store i32 %106, i32* %5, align 4
  br label %68

107:                                              ; preds = %101, %68
  %108 = load i32, i32* %7, align 4
  %109 = icmp eq i32 %108, 0
  br i1 %109, label %110, label %161

110:                                              ; preds = %107
  store i32 0, i32* %5, align 4
  br label %111

111:                                              ; preds = %130, %110
  %112 = load i32, i32* %5, align 4
  %113 = load i32, i32* %4, align 4
  %114 = icmp slt i32 %112, %113
  br i1 %114, label %115, label %133

115:                                              ; preds = %111
  %116 = load i32, i32* %5, align 4
  %117 = sext i32 %116 to i64
  %118 = getelementptr inbounds [500 x i8], [500 x i8]* %9, i64 0, i64 %117
  %119 = load i8, i8* %118, align 1
  %120 = sext i8 %119 to i32
  %121 = load i32, i32* %5, align 4
  %122 = sext i32 %121 to i64
  %123 = getelementptr inbounds [500 x i8], [500 x i8]* %10, i64 0, i64 %122
  %124 = load i8, i8* %123, align 1
  %125 = sext i8 %124 to i32
  %126 = sdiv i32 %120, %125
  %127 = load i32, i32* %5, align 4
  %128 = sext i32 %127 to i64
  %129 = getelementptr inbounds [1000 x i32], [1000 x i32]* %8, i64 0, i64 %128
  store i32 %126, i32* %129, align 4
  br label %130

130:                                              ; preds = %115
  %131 = load i32, i32* %5, align 4
  %132 = add nsw i32 %131, 1
  store i32 %132, i32* %5, align 4
  br label %111

133:                                              ; preds = %111
  store i32 0, i32* %5, align 4
  br label %134

134:                                              ; preds = %150, %133
  %135 = load i32, i32* %5, align 4
  %136 = load i32, i32* %3, align 4
  %137 = icmp slt i32 %135, %136
  br i1 %137, label %138, label %153

138:                                              ; preds = %134
  %139 = load i32, i32* %5, align 4
  %140 = sext i32 %139 to i64
  %141 = getelementptr inbounds [1000 x i32], [1000 x i32]* %8, i64 0, i64 %140
  %142 = load i32, i32* %141, align 4
  %143 = sitofp i32 %142 to double
  %144 = load double, double* %2, align 8
  %145 = fcmp olt double %143, %144
  br i1 %145, label %146, label %149

146:                                              ; preds = %138
  %147 = load i32, i32* %6, align 4
  %148 = add nsw i32 %147, 1
  store i32 %148, i32* %6, align 4
  br label %149

149:                                              ; preds = %146, %138
  br label %150

150:                                              ; preds = %149
  %151 = load i32, i32* %5, align 4
  %152 = add nsw i32 %151, 1
  store i32 %152, i32* %5, align 4
  br label %134

153:                                              ; preds = %134
  %154 = load i32, i32* %6, align 4
  %155 = icmp eq i32 %154, 0
  br i1 %155, label %156, label %158

156:                                              ; preds = %153
  %157 = call i32 (i8*, ...) @printf(i8* getelementptr inbounds ([4 x i8], [4 x i8]* @.str.3, i64 0, i64 0))
  br label %160

158:                                              ; preds = %153
  %159 = call i32 (i8*, ...) @printf(i8* getelementptr inbounds ([3 x i8], [3 x i8]* @.str.4, i64 0, i64 0))
  br label %160

160:                                              ; preds = %158, %156
  br label %161

161:                                              ; preds = %160, %107
  store i32 0, i32* %1, align 4
  br label %162

162:                                              ; preds = %161, %25
  %163 = load i32, i32* %1, align 4
  ret i32 %163
}

declare dso_local i32 @__isoc99_scanf(i8*, ...) #1

; Function Attrs: nounwind readonly
declare dso_local i64 @strlen(i8*) #2

declare dso_local i32 @printf(i8*, ...) #1


!llvm.module.flags = !{!0}
!llvm.ident = !{!1}

!0 = !{i32 1, !"wchar_size", i32 4}
!1 = !{!"clang version 10.0.0-4ubuntu1 "}
